target datalayout = "e-m:e-p270:32:32-p271:32:32-p272:64:64-i64:64-i128:128-f80:128-n8:16:32:64-S128"
target triple = "x86_64-pc-linux-gnu"

%struct._iax2_info_t = type { i32, i16, i16, i8, i8, i32, i32, i32, ptr, ptr, ptr, ptr }
%struct._packet_info = type { ptr, ptr, i32, i32, %struct.nstime_t, %struct.nstime_t, %struct.nstime_t, i8, ptr, ptr, ptr, ptr, %struct._address, %struct._address, %struct._address, %struct._address, %struct._address, %struct._address, i32, ptr, i8, [3 x i8], %struct.anon, i32, i32, i32, i32, ptr, i8, ptr, ptr, i16, i16, i32, i32, i16, i32, i32, ptr, ptr, ptr, i8, i8, i16, i16, i16, i32, i16, i16, ptr, ptr, ptr, ptr, ptr, i32, i32 }
%struct.nstime_t = type { i64, i32 }
%struct._address = type { i32, i32, ptr, ptr }
%struct.anon = type { i8, [3 x i8] }
%struct.iax_packet_data = type { i8, ptr, i32, i8, %struct.nstime_t }
%struct.iax_call_data = type { i32, i32, i32, i32, i32, [2 x i32], [2 x i32], i32, i32, ptr, %struct.nstime_t, i32, [2 x %struct.iax_call_dirdata] }
%struct.iax_call_dirdata = type { i32, i32, i32 }
%struct._proto_node = type { ptr, ptr, ptr, ptr, ptr, ptr, ptr }
%struct.field_info = type { ptr, i32, i32, i32, i32, i32, i32, ptr, ptr, ptr, i32, i32 }

@hf_iax2_absts = internal global i32 0, align 4
@hf_iax2_lateness = internal global i32 0, align 4
@iax2_info = internal global ptr @ii_arr, align 8

; Function Attrs: inlinehint nounwind null_pointer_is_valid sspstrong uwtable
define internal void @proto_item_set_generated(ptr noundef %0) #3 {
  %2 = alloca ptr, align 8
  store ptr %0, ptr %2, align 8
  %3 = load ptr, ptr %2, align 8
  %4 = icmp ne ptr %3, null
  br i1 %4, label %5, label %24

5:                                                ; preds = %1
  br label %6

6:                                                ; preds = %5
  %7 = load ptr, ptr %2, align 8
  %8 = getelementptr inbounds nuw %struct._proto_node, ptr %7, i32 0, i32 5
  %9 = load ptr, ptr %8, align 8
  %10 = icmp ne ptr %9, null
  br i1 %10, label %11, label %22

11:                                               ; preds = %6
  %12 = load ptr, ptr %2, align 8
  %13 = getelementptr inbounds nuw %struct._proto_node, ptr %12, i32 0, i32 5
  %14 = load ptr, ptr %13, align 8
  %15 = getelementptr inbounds nuw %struct.field_info, ptr %14, i32 0, i32 6
  %16 = load i32, ptr %15, align 4
  %17 = or i32 %16, 2
  %18 = load ptr, ptr %2, align 8
  %19 = getelementptr inbounds nuw %struct._proto_node, ptr %18, i32 0, i32 5
  %20 = load ptr, ptr %19, align 8
  %21 = getelementptr inbounds nuw %struct.field_info, ptr %20, i32 0, i32 6
  store i32 %17, ptr %21, align 4
  br label %22

22:                                               ; preds = %11, %6
  br label %23

23:                                               ; preds = %22
  br label %24

24:                                               ; preds = %23, %1
  ret void
}

; Function Attrs: null_pointer_is_valid sspstrong uwtable
define internal void @iax2_add_ts_fields(ptr noundef %0, ptr noundef %1, ptr noundef %2, ptr noundef %3, i32 noundef %4, i32 noundef %5) #0 {
  %7 = alloca ptr, align 8
  %8 = alloca ptr, align 8
  %9 = alloca ptr, align 8
  %10 = alloca ptr, align 8
  %11 = alloca i32, align 4
  %12 = alloca i32, align 4
  %13 = alloca i32, align 4
  %14 = alloca %struct.nstime_t, align 8
  %15 = alloca ptr, align 8
  %16 = alloca i32, align 4
  %17 = alloca %struct.nstime_t, align 8
  store ptr %0, ptr %7, align 8
  store ptr %1, ptr %8, align 8
  store ptr %2, ptr %9, align 8
  store ptr %3, ptr %10, align 8
  store i32 %4, ptr %11, align 4
  store i32 %5, ptr %12, align 4
  call void @llvm.lifetime.start.p0(i64 4, ptr %13) #14
  %18 = load i32, ptr %12, align 4
  store i32 %18, ptr %13, align 4
  call void @llvm.lifetime.start.p0(i64 16, ptr %14) #14
  call void @llvm.lifetime.start.p0(i64 8, ptr %15) #14
  %19 = load ptr, ptr %10, align 8
  %20 = getelementptr inbounds nuw %struct.iax_packet_data, ptr %19, i32 0, i32 1
  %21 = load ptr, ptr %20, align 8
  %22 = icmp eq ptr %21, null
  br i1 %22, label %23, label %24

23:                                               ; preds = %6
  store i32 1, ptr %16, align 4
  br label %96

24:                                               ; preds = %6
  %25 = load ptr, ptr %10, align 8
  %26 = getelementptr inbounds nuw %struct.iax_packet_data, ptr %25, i32 0, i32 4
  %27 = getelementptr inbounds nuw %struct.nstime_t, ptr %26, i32 0, i32 0
  %28 = load i64, ptr %27, align 8
  %29 = icmp eq i64 %28, -1
  br i1 %29, label %30, label %72

30:                                               ; preds = %24
  call void @llvm.lifetime.start.p0(i64 16, ptr %17) #14
  %31 = load i32, ptr %11, align 4
  switch i32 %31, label %57 [
    i32 0, label %32
    i32 1, label %41
    i32 3, label %41
    i32 2, label %48
  ]

32:                                               ; preds = %30
  %33 = load ptr, ptr %10, align 8
  %34 = getelementptr inbounds nuw %struct.iax_packet_data, ptr %33, i32 0, i32 1
  %35 = load ptr, ptr %34, align 8
  %36 = getelementptr inbounds nuw %struct.iax_call_data, ptr %35, i32 0, i32 11
  %37 = load i32, ptr %36, align 8
  %38 = and i32 %37, -65536
  %39 = load i32, ptr %12, align 4
  %40 = or i32 %38, %39
  store i32 %40, ptr %13, align 4
  br label %57

41:                                               ; preds = %30, %30
  %42 = load i32, ptr %12, align 4
  store i32 %42, ptr %13, align 4
  %43 = load i32, ptr %13, align 4
  %44 = load ptr, ptr %10, align 8
  %45 = getelementptr inbounds nuw %struct.iax_packet_data, ptr %44, i32 0, i32 1
  %46 = load ptr, ptr %45, align 8
  %47 = getelementptr inbounds nuw %struct.iax_call_data, ptr %46, i32 0, i32 11
  store i32 %43, ptr %47, align 8
  br label %57

48:                                               ; preds = %30
  %49 = load ptr, ptr %10, align 8
  %50 = getelementptr inbounds nuw %struct.iax_packet_data, ptr %49, i32 0, i32 1
  %51 = load ptr, ptr %50, align 8
  %52 = getelementptr inbounds nuw %struct.iax_call_data, ptr %51, i32 0, i32 11
  %53 = load i32, ptr %52, align 8
  %54 = and i32 %53, -32768
  %55 = load i32, ptr %12, align 4
  %56 = or i32 %54, %55
  store i32 %56, ptr %13, align 4
  br label %57

57:                                               ; preds = %30, %48, %41, %32
  %58 = load i32, ptr %13, align 4
  %59 = udiv i32 %58, 1000
  %60 = zext i32 %59 to i64
  %61 = getelementptr inbounds nuw %struct.nstime_t, ptr %17, i32 0, i32 0
  store i64 %60, ptr %61, align 8
  %62 = load i32, ptr %13, align 4
  %63 = urem i32 %62, 1000
  %64 = mul i32 %63, 1000000
  %65 = getelementptr inbounds nuw %struct.nstime_t, ptr %17, i32 0, i32 1
  store i32 %64, ptr %65, align 8
  %66 = load ptr, ptr %10, align 8
  %67 = getelementptr inbounds nuw %struct.iax_packet_data, ptr %66, i32 0, i32 4
  %68 = load ptr, ptr %10, align 8
  %69 = getelementptr inbounds nuw %struct.iax_packet_data, ptr %68, i32 0, i32 1
  %70 = load ptr, ptr %69, align 8
  %71 = getelementptr inbounds nuw %struct.iax_call_data, ptr %70, i32 0, i32 10
  call void @nstime_sum(ptr noundef %67, ptr noundef %71, ptr noundef %17)
  call void @llvm.lifetime.end.p0(i64 16, ptr %17) #14
  br label %72

72:                                               ; preds = %57, %24
  %73 = load i32, ptr %12, align 4
  %74 = load ptr, ptr @iax2_info, align 8
  %75 = getelementptr inbounds nuw %struct._iax2_info_t, ptr %74, i32 0, i32 5
  store i32 %73, ptr %75, align 4
  %76 = load ptr, ptr %8, align 8
  %77 = icmp ne ptr %76, null
  br i1 %77, label %78, label %95

78:                                               ; preds = %72
  %79 = load ptr, ptr %8, align 8
  %80 = load i32, ptr @hf_iax2_absts, align 4
  %81 = load ptr, ptr %9, align 8
  %82 = load ptr, ptr %10, align 8
  %83 = getelementptr inbounds nuw %struct.iax_packet_data, ptr %82, i32 0, i32 4
  %84 = call ptr @proto_tree_add_time(ptr noundef %79, i32 noundef %80, ptr noundef %81, i32 noundef 0, i32 noundef 0, ptr noundef %83)
  store ptr %84, ptr %15, align 8
  %85 = load ptr, ptr %15, align 8
  call void @proto_item_set_generated(ptr noundef %85)
  %86 = load ptr, ptr %7, align 8
  %87 = getelementptr inbounds nuw %struct._packet_info, ptr %86, i32 0, i32 4
  %88 = load ptr, ptr %10, align 8
  %89 = getelementptr inbounds nuw %struct.iax_packet_data, ptr %88, i32 0, i32 4
  call void @nstime_delta(ptr noundef %14, ptr noundef %87, ptr noundef %89)
  %90 = load ptr, ptr %8, align 8
  %91 = load i32, ptr @hf_iax2_lateness, align 4
  %92 = load ptr, ptr %9, align 8
  %93 = call ptr @proto_tree_add_time(ptr noundef %90, i32 noundef %91, ptr noundef %92, i32 noundef 0, i32 noundef 0, ptr noundef %14)
  store ptr %93, ptr %15, align 8
  %94 = load ptr, ptr %15, align 8
  call void @proto_item_set_generated(ptr noundef %94)
  br label %95

95:                                               ; preds = %78, %72
  store i32 0, ptr %16, align 4
  br label %96

96:                                               ; preds = %95, %23
  call void @llvm.lifetime.end.p0(i64 8, ptr %15) #14
  call void @llvm.lifetime.end.p0(i64 16, ptr %14) #14
  call void @llvm.lifetime.end.p0(i64 4, ptr %13) #14
  %97 = load i32, ptr %16, align 4
  switch i32 %97, label %99 [
    i32 0, label %98
    i32 1, label %98
  ]

98:                                               ; preds = %96, %96
  ret void

99:                                               ; preds = %96
  unreachable
}