; Function Attrs: null_pointer_is_valid sspstrong uwtable
define internal fastcc void @iax2_add_ts_fields(ptr noundef %0, ptr noundef %1, ptr noundef %2, ptr noundef %3, i32 noundef range(i32 0, 3) %4, i32 noundef %5) unnamed_addr #0 {
  %7 = alloca %struct.nstime_t, align 8
  %8 = alloca %struct.nstime_t, align 8
  call void @llvm.lifetime.start.p0(i64 16, ptr nonnull %7) #15
  %9 = getelementptr inbounds nuw i8, ptr %3, i64 8
  %10 = load ptr, ptr %9, align 8
  %11 = icmp eq ptr %10, null
  br i1 %11, label %proto_item_set_generated.exit28, label %12

12:                                               ; preds = %6
  %13 = getelementptr inbounds nuw i8, ptr %3, i64 24
  %14 = load i64, ptr %13, align 8
  %15 = icmp eq i64 %14, -1
  br i1 %15, label %16, label %35

16:                                               ; preds = %12
  call void @llvm.lifetime.start.p0(i64 16, ptr nonnull %8) #15
  %17 = getelementptr inbounds nuw i8, ptr %10, i64 72
  switch i32 %4, label %default.unreachable29 [
    i32 0, label %18
    i32 1, label %22
    i32 2, label %23
  ]

18:                                               ; preds = %16
  %19 = load i32, ptr %17, align 8
  %20 = and i32 %19, -65536
  %21 = or i32 %20, %5
  br label %27

22:                                               ; preds = %16
  store i32 %5, ptr %17, align 8
  %.pre = load ptr, ptr %9, align 8
  br label %27

23:                                               ; preds = %16
  %24 = load i32, ptr %17, align 8
  %25 = and i32 %24, -32768
  %26 = or i32 %25, %5
  br label %27

default.unreachable29:                            ; preds = %16
  unreachable

27:                                               ; preds = %23, %22, %18
  %28 = phi ptr [ %10, %23 ], [ %.pre, %22 ], [ %10, %18 ]
  %.0 = phi i32 [ %26, %23 ], [ %5, %22 ], [ %21, %18 ]
  %29 = udiv i32 %.0, 1000
  %30 = zext nneg i32 %29 to i64
  store i64 %30, ptr %8, align 8
  %31 = urem i32 %.0, 1000
  %32 = mul nuw nsw i32 %31, 1000000
  %33 = getelementptr inbounds nuw i8, ptr %8, i64 8
  store i32 %32, ptr %33, align 8
  %34 = getelementptr inbounds nuw i8, ptr %28, i64 56
  call void @nstime_sum(ptr noundef nonnull %13, ptr noundef nonnull %34, ptr noundef nonnull %8)
  call void @llvm.lifetime.end.p0(i64 16, ptr nonnull %8) #15
  br label %35

35:                                               ; preds = %27, %12
  store i32 %5, ptr getelementptr inbounds nuw (i8, ptr @ii_arr, i64 12), align 4
  %.not = icmp eq ptr %1, null
  br i1 %.not, label %proto_item_set_generated.exit28, label %36

36:                                               ; preds = %35
  %37 = load i32, ptr @hf_iax2_absts, align 4
  %38 = call ptr @proto_tree_add_time(ptr noundef nonnull %1, i32 noundef %37, ptr noundef %2, i32 noundef 0, i32 noundef 0, ptr noundef nonnull %13)
  %.not.i = icmp eq ptr %38, null
  br i1 %.not.i, label %proto_item_set_generated.exit, label %39

39:                                               ; preds = %36
  %40 = getelementptr inbounds nuw i8, ptr %38, i64 40
  %41 = load ptr, ptr %40, align 8
  %.not5.i = icmp eq ptr %41, null
  br i1 %.not5.i, label %proto_item_set_generated.exit, label %42

42:                                               ; preds = %39
  %43 = getelementptr inbounds nuw i8, ptr %41, i64 28
  %44 = load i32, ptr %43, align 4
  %45 = or i32 %44, 2
  store i32 %45, ptr %43, align 4
  br label %proto_item_set_generated.exit

proto_item_set_generated.exit:                    ; preds = %36, %39, %42
  %46 = getelementptr inbounds nuw i8, ptr %0, i64 24
  call void @nstime_delta(ptr noundef nonnull %7, ptr noundef nonnull %46, ptr noundef nonnull %13)
  %47 = load i32, ptr @hf_iax2_lateness, align 4
  %48 = call ptr @proto_tree_add_time(ptr noundef nonnull %1, i32 noundef %47, ptr noundef %2, i32 noundef 0, i32 noundef 0, ptr noundef nonnull %7)
  %.not.i26 = icmp eq ptr %48, null
  br i1 %.not.i26, label %proto_item_set_generated.exit28, label %49

49:                                               ; preds = %proto_item_set_generated.exit
  %50 = getelementptr inbounds nuw i8, ptr %48, i64 40
  %51 = load ptr, ptr %50, align 8
  %.not5.i27 = icmp eq ptr %51, null
  br i1 %.not5.i27, label %proto_item_set_generated.exit28, label %52

52:                                               ; preds = %49
  %53 = getelementptr inbounds nuw i8, ptr %51, i64 28
  %54 = load i32, ptr %53, align 4
  %55 = or i32 %54, 2
  store i32 %55, ptr %53, align 4
  br label %proto_item_set_generated.exit28

proto_item_set_generated.exit28:                  ; preds = %52, %49, %proto_item_set_generated.exit, %35, %6
  call void @llvm.lifetime.end.p0(i64 16, ptr nonnull %7) #15
  ret void
}